; Function Attrs: mustprogress uwtable
define void @_ZN19GsmMapSummaryDialog13updateWidgetsEv(ptr noundef nonnull align 8 dereferenceable(144) %0) unnamed_addr #0 align 2 personality ptr @__gxx_personality_v0 {
  %2 = alloca %class.QString, align 8
  %3 = getelementptr inbounds i8, ptr %0, i64 136
  %4 = load ptr, ptr %3, align 8
  %5 = getelementptr inbounds i8, ptr %4, i64 8
  %6 = load ptr, ptr %5, align 8
  call void @_ZN19GsmMapSummaryDialog13summaryToHtmlEv(ptr dead_on_unwind nonnull writable sret(%class.QString) align 8 %2, ptr noundef nonnull align 8 dereferenceable(144) %0)
  invoke void @_ZN9QTextEdit7setHtmlERK7QString(ptr noundef nonnull align 8 dereferenceable(40) %6, ptr noundef nonnull align 8 dereferenceable(24) %2)
          to label %7 unwind label %12

7:                                                ; preds = %1
  %8 = load ptr, ptr %2, align 8
  %.not.i.i.i = icmp eq ptr %8, null
  br i1 %.not.i.i.i, label %_ZN7QStringD2Ev.exit, label %_ZN17QArrayDataPointerIDsE5derefEv.exit.i.i

_ZN17QArrayDataPointerIDsE5derefEv.exit.i.i:      ; preds = %7
  %9 = atomicrmw sub ptr %8, i32 1 seq_cst, align 4
  %.not.i.i = icmp eq i32 %9, 1
  br i1 %.not.i.i, label %10, label %_ZN7QStringD2Ev.exit

10:                                               ; preds = %_ZN17QArrayDataPointerIDsE5derefEv.exit.i.i
  %11 = load ptr, ptr %2, align 8
  call void @_ZN10QArrayData10deallocateEPS_xx(ptr noundef %11, i64 noundef 2, i64 noundef 8) #14
  br label %_ZN7QStringD2Ev.exit

_ZN7QStringD2Ev.exit:                             ; preds = %7, %_ZN17QArrayDataPointerIDsE5derefEv.exit.i.i, %10
  call void @_ZN15WiresharkDialog13updateWidgetsEv(ptr noundef nonnull align 8 dereferenceable(133) %0)
  ret void

12:                                               ; preds = %1
  %13 = landingpad { ptr, i32 }
          cleanup
  %14 = load ptr, ptr %2, align 8
  %.not.i.i.i2 = icmp eq ptr %14, null
  br i1 %.not.i.i.i2, label %_ZN7QStringD2Ev.exit5, label %_ZN17QArrayDataPointerIDsE5derefEv.exit.i.i3

_ZN17QArrayDataPointerIDsE5derefEv.exit.i.i3:     ; preds = %12
  %15 = atomicrmw sub ptr %14, i32 1 seq_cst, align 4
  %.not.i.i4 = icmp eq i32 %15, 1
  br i1 %.not.i.i4, label %16, label %_ZN7QStringD2Ev.exit5

16:                                               ; preds = %_ZN17QArrayDataPointerIDsE5derefEv.exit.i.i3
  %17 = load ptr, ptr %2, align 8
  call void @_ZN10QArrayData10deallocateEPS_xx(ptr noundef %17, i64 noundef 2, i64 noundef 8) #14
  br label %_ZN7QStringD2Ev.exit5

_ZN7QStringD2Ev.exit5:                            ; preds = %12, %_ZN17QArrayDataPointerIDsE5derefEv.exit.i.i3, %16
  resume { ptr, i32 } %13
}